#include <math.h>
#include <stdio.h>
#include <stdlib.h>
#include <string.h>

int main(int argc, char* argv[])
{
	double x1,x2,a,b,c,s,q,w;
	int n,j;
	scanf("%d",&n);
	for(j=1;j<=n;j++)
	{scanf("%lf%lf%lf",&a,&b,&c);
	s=b*b-4*a*c;
	if(s>0)
	{x1=(-b + sqrt(s))/(2*a);
	x2=(-b - sqrt(s))/(2*a);
	printf("x1=%.5lf;x2=%.5lf\n",x1,x2);}
	else if(s==0)
	{{if(b==0)
		x1=x2=0;
	else
		x1=x2=-b/(2*a);}

	printf("x1=x2=%.5lf\n",x1); }
	else 
	{
		q=-b/(2*a);
	w=sqrt(-s)/(2*a);
	{if(b==0)
		printf("x1=%.5lf+%.5lfi;x2=%.5lf-%.5lfi\n",q,w,q,w);
	else

		
		
		printf("x1=%.5lf+%.5lfi;x2=%.5lf-%.5lfi\n",q,w,q,w);}}
	}


	return 0;
}

